; Function Attrs: mustprogress nounwind uwtable
define void @_ZN7glslang14TParseVersions10spvRemovedERKNS_10TSourceLocEPKc(ptr noundef nonnull align 8 dereferenceable(224) %0, ptr noundef nonnull align 8 dereferenceable(24) %1, ptr noundef %2) unnamed_addr #0 align 2 {
  %4 = getelementptr inbounds i8, ptr %0, i64 32
  %5 = load i32, ptr %4, align 8
  %.not = icmp eq i32 %5, 0
  br i1 %.not, label %10, label %6

6:                                                ; preds = %3
  %7 = load ptr, ptr %0, align 8
  %8 = getelementptr inbounds i8, ptr %7, i64 344
  %9 = load ptr, ptr %8, align 8
  tail call void (ptr, ptr, ptr, ptr, ptr, ...) %9(ptr noundef nonnull align 8 dereferenceable(224) %0, ptr noundef nonnull align 8 dereferenceable(24) %1, ptr noundef nonnull @.str.266, ptr noundef %2, ptr noundef nonnull @.str.240) #15
  br label %10

10:                                               ; preds = %6, %3
  ret void
}